target datalayout = "e-m:e-p270:32:32-p271:32:32-p272:64:64-i64:64-i128:128-f80:128-n8:16:32:64-S128"
target triple = "x86_64-pc-linux-gnu"

%"class.std::unique_ptr.4" = type { %"struct.std::__uniq_ptr_data.5" }
%"struct.std::__uniq_ptr_data.5" = type { %"class.std::__uniq_ptr_impl.6" }
%"class.std::__uniq_ptr_impl.6" = type { %"class.std::tuple.7" }
%"class.std::tuple.7" = type { %"struct.std::_Tuple_impl.8" }
%"struct.std::_Tuple_impl.8" = type { %"struct.std::_Head_base.11" }
%"struct.std::_Head_base.11" = type { ptr }
%"class.std::unique_ptr.20" = type { %"struct.std::__uniq_ptr_data.21" }
%"struct.std::__uniq_ptr_data.21" = type { %"class.std::__uniq_ptr_impl.22" }
%"class.std::__uniq_ptr_impl.22" = type { %"class.std::tuple.23" }
%"class.std::tuple.23" = type { %"struct.std::_Tuple_impl.24" }
%"struct.std::_Tuple_impl.24" = type { %"struct.std::_Head_base.27" }
%"struct.std::_Head_base.27" = type { ptr }
%"class.llvm::object::OwningBinary" = type { %"class.std::unique_ptr.20", %"class.std::unique_ptr.4" }

; Function Attrs: mustprogress nounwind uwtable
define linkonce_odr hidden noundef nonnull align 1 dereferenceable(1) ptr @_ZNSt10_Head_baseILm1ESt14default_deleteIN4llvm6object10ObjectFileEELb1EE7_M_headERS5_(ptr noundef nonnull align 1 dereferenceable(1) %0) #0 comdat align 2 {
  %2 = alloca ptr, align 8
  store ptr %0, ptr %2, align 8
  %3 = load ptr, ptr %2, align 8
  ret ptr %3
}

; Function Attrs: mustprogress nounwind uwtable
define linkonce_odr hidden noundef nonnull align 1 dereferenceable(1) ptr @_ZNSt10_Head_baseILm1ESt14default_deleteIN4llvm12MemoryBufferEELb1EE7_M_headERS4_(ptr noundef nonnull align 1 dereferenceable(1) %0) #0 comdat align 2 {
  %2 = alloca ptr, align 8
  store ptr %0, ptr %2, align 8
  %3 = load ptr, ptr %2, align 8
  ret ptr %3
}

; Function Attrs: mustprogress nounwind uwtable
define linkonce_odr hidden noundef nonnull align 1 dereferenceable(1) ptr @_ZNSt11_Tuple_implILm1EJSt14default_deleteIN4llvm6object10ObjectFileEEEE7_M_headERS5_(ptr noundef nonnull align 1 dereferenceable(1) %0) #0 comdat align 2 {
  %2 = alloca ptr, align 8
  store ptr %0, ptr %2, align 8
  %3 = load ptr, ptr %2, align 8
  %4 = call noundef nonnull align 1 dereferenceable(1) ptr @_ZNSt10_Head_baseILm1ESt14default_deleteIN4llvm6object10ObjectFileEELb1EE7_M_headERS5_(ptr noundef nonnull align 1 dereferenceable(1) %3) #11
  ret ptr %4
}

; Function Attrs: mustprogress nounwind uwtable
define linkonce_odr hidden noundef nonnull align 8 dereferenceable(8) ptr @_ZNSt10_Head_baseILm0EPN4llvm6object10ObjectFileELb0EE7_M_headERS4_(ptr noundef nonnull align 8 dereferenceable(8) %0) #0 comdat align 2 {
  %2 = alloca ptr, align 8
  store ptr %0, ptr %2, align 8
  %3 = load ptr, ptr %2, align 8
  %4 = getelementptr inbounds nuw %"struct.std::_Head_base.27", ptr %3, i32 0, i32 0
  ret ptr %4
}

; Function Attrs: mustprogress nounwind uwtable
define linkonce_odr hidden noundef nonnull align 1 dereferenceable(1) ptr @_ZNSt11_Tuple_implILm1EJSt14default_deleteIN4llvm12MemoryBufferEEEE7_M_headERS4_(ptr noundef nonnull align 1 dereferenceable(1) %0) #0 comdat align 2 {
  %2 = alloca ptr, align 8
  store ptr %0, ptr %2, align 8
  %3 = load ptr, ptr %2, align 8
  %4 = call noundef nonnull align 1 dereferenceable(1) ptr @_ZNSt10_Head_baseILm1ESt14default_deleteIN4llvm12MemoryBufferEELb1EE7_M_headERS4_(ptr noundef nonnull align 1 dereferenceable(1) %3) #11
  ret ptr %4
}

; Function Attrs: mustprogress nounwind uwtable
define linkonce_odr hidden noundef nonnull align 8 dereferenceable(8) ptr @_ZNSt10_Head_baseILm0EPN4llvm12MemoryBufferELb0EE7_M_headERS3_(ptr noundef nonnull align 8 dereferenceable(8) %0) #0 comdat align 2 {
  %2 = alloca ptr, align 8
  store ptr %0, ptr %2, align 8
  %3 = load ptr, ptr %2, align 8
  %4 = getelementptr inbounds nuw %"struct.std::_Head_base.11", ptr %3, i32 0, i32 0
  ret ptr %4
}

; Function Attrs: mustprogress nounwind uwtable
define linkonce_odr noundef nonnull align 1 dereferenceable(1) ptr @_ZSt12__get_helperILm1ESt14default_deleteIN4llvm6object10ObjectFileEEJEERT0_RSt11_Tuple_implIXT_EJS5_DpT1_EE(ptr noundef nonnull align 1 dereferenceable(1) %0) #0 comdat {
  %2 = alloca ptr, align 8
  store ptr %0, ptr %2, align 8
  %3 = load ptr, ptr %2, align 8
  %4 = call noundef nonnull align 1 dereferenceable(1) ptr @_ZNSt11_Tuple_implILm1EJSt14default_deleteIN4llvm6object10ObjectFileEEEE7_M_headERS5_(ptr noundef nonnull align 1 dereferenceable(1) %3) #11
  ret ptr %4
}

; Function Attrs: mustprogress nounwind uwtable
define linkonce_odr hidden noundef nonnull align 8 dereferenceable(8) ptr @_ZNSt11_Tuple_implILm0EJPN4llvm6object10ObjectFileESt14default_deleteIS2_EEE7_M_headERS6_(ptr noundef nonnull align 8 dereferenceable(8) %0) #0 comdat align 2 {
  %2 = alloca ptr, align 8
  store ptr %0, ptr %2, align 8
  %3 = load ptr, ptr %2, align 8
  %4 = call noundef nonnull align 8 dereferenceable(8) ptr @_ZNSt10_Head_baseILm0EPN4llvm6object10ObjectFileELb0EE7_M_headERS4_(ptr noundef nonnull align 8 dereferenceable(8) %3) #11
  ret ptr %4
}

; Function Attrs: mustprogress nounwind uwtable
define linkonce_odr noundef nonnull align 1 dereferenceable(1) ptr @_ZSt12__get_helperILm1ESt14default_deleteIN4llvm12MemoryBufferEEJEERT0_RSt11_Tuple_implIXT_EJS4_DpT1_EE(ptr noundef nonnull align 1 dereferenceable(1) %0) #0 comdat {
  %2 = alloca ptr, align 8
  store ptr %0, ptr %2, align 8
  %3 = load ptr, ptr %2, align 8
  %4 = call noundef nonnull align 1 dereferenceable(1) ptr @_ZNSt11_Tuple_implILm1EJSt14default_deleteIN4llvm12MemoryBufferEEEE7_M_headERS4_(ptr noundef nonnull align 1 dereferenceable(1) %3) #11
  ret ptr %4
}

; Function Attrs: mustprogress nounwind uwtable
define linkonce_odr hidden noundef nonnull align 8 dereferenceable(8) ptr @_ZNSt11_Tuple_implILm0EJPN4llvm12MemoryBufferESt14default_deleteIS1_EEE7_M_headERS5_(ptr noundef nonnull align 8 dereferenceable(8) %0) #0 comdat align 2 {
  %2 = alloca ptr, align 8
  store ptr %0, ptr %2, align 8
  %3 = load ptr, ptr %2, align 8
  %4 = call noundef nonnull align 8 dereferenceable(8) ptr @_ZNSt10_Head_baseILm0EPN4llvm12MemoryBufferELb0EE7_M_headERS3_(ptr noundef nonnull align 8 dereferenceable(8) %3) #11
  ret ptr %4
}

; Function Attrs: mustprogress nounwind uwtable
define linkonce_odr noundef nonnull align 1 dereferenceable(1) ptr @_ZSt3getILm1EJPN4llvm6object10ObjectFileESt14default_deleteIS2_EEERNSt13tuple_elementIXT_ESt5tupleIJDpT0_EEE4typeERSA_(ptr noundef nonnull align 8 dereferenceable(8) %0) #0 comdat {
  %2 = alloca ptr, align 8
  store ptr %0, ptr %2, align 8
  %3 = load ptr, ptr %2, align 8
  %4 = call noundef nonnull align 1 dereferenceable(1) ptr @_ZSt12__get_helperILm1ESt14default_deleteIN4llvm6object10ObjectFileEEJEERT0_RSt11_Tuple_implIXT_EJS5_DpT1_EE(ptr noundef nonnull align 1 dereferenceable(1) %3) #11
  ret ptr %4
}

; Function Attrs: mustprogress nounwind uwtable
define linkonce_odr noundef nonnull align 8 dereferenceable(8) ptr @_ZSt12__get_helperILm0EPN4llvm6object10ObjectFileEJSt14default_deleteIS2_EEERT0_RSt11_Tuple_implIXT_EJS6_DpT1_EE(ptr noundef nonnull align 8 dereferenceable(8) %0) #0 comdat {
  %2 = alloca ptr, align 8
  store ptr %0, ptr %2, align 8
  %3 = load ptr, ptr %2, align 8
  %4 = call noundef nonnull align 8 dereferenceable(8) ptr @_ZNSt11_Tuple_implILm0EJPN4llvm6object10ObjectFileESt14default_deleteIS2_EEE7_M_headERS6_(ptr noundef nonnull align 8 dereferenceable(8) %3) #11
  ret ptr %4
}

; Function Attrs: mustprogress nounwind uwtable
define linkonce_odr noundef nonnull align 1 dereferenceable(1) ptr @_ZSt3getILm1EJPN4llvm12MemoryBufferESt14default_deleteIS1_EEERNSt13tuple_elementIXT_ESt5tupleIJDpT0_EEE4typeERS9_(ptr noundef nonnull align 8 dereferenceable(8) %0) #0 comdat {
  %2 = alloca ptr, align 8
  store ptr %0, ptr %2, align 8
  %3 = load ptr, ptr %2, align 8
  %4 = call noundef nonnull align 1 dereferenceable(1) ptr @_ZSt12__get_helperILm1ESt14default_deleteIN4llvm12MemoryBufferEEJEERT0_RSt11_Tuple_implIXT_EJS4_DpT1_EE(ptr noundef nonnull align 1 dereferenceable(1) %3) #11
  ret ptr %4
}

; Function Attrs: mustprogress nounwind uwtable
define linkonce_odr noundef nonnull align 8 dereferenceable(8) ptr @_ZSt12__get_helperILm0EPN4llvm12MemoryBufferEJSt14default_deleteIS1_EEERT0_RSt11_Tuple_implIXT_EJS5_DpT1_EE(ptr noundef nonnull align 8 dereferenceable(8) %0) #0 comdat {
  %2 = alloca ptr, align 8
  store ptr %0, ptr %2, align 8
  %3 = load ptr, ptr %2, align 8
  %4 = call noundef nonnull align 8 dereferenceable(8) ptr @_ZNSt11_Tuple_implILm0EJPN4llvm12MemoryBufferESt14default_deleteIS1_EEE7_M_headERS5_(ptr noundef nonnull align 8 dereferenceable(8) %3) #11
  ret ptr %4
}

; Function Attrs: mustprogress nounwind uwtable
define linkonce_odr hidden noundef nonnull align 1 dereferenceable(1) ptr @_ZNSt15__uniq_ptr_implIN4llvm6object10ObjectFileESt14default_deleteIS2_EE10_M_deleterEv(ptr noundef nonnull align 8 dereferenceable(8) %0) #0 comdat align 2 {
  %2 = alloca ptr, align 8
  store ptr %0, ptr %2, align 8
  %3 = load ptr, ptr %2, align 8
  %4 = getelementptr inbounds nuw %"class.std::__uniq_ptr_impl.22", ptr %3, i32 0, i32 0
  %5 = call noundef nonnull align 1 dereferenceable(1) ptr @_ZSt3getILm1EJPN4llvm6object10ObjectFileESt14default_deleteIS2_EEERNSt13tuple_elementIXT_ESt5tupleIJDpT0_EEE4typeERSA_(ptr noundef nonnull align 8 dereferenceable(8) %4) #11
  ret ptr %5
}

; Function Attrs: mustprogress nounwind uwtable
define linkonce_odr noundef nonnull align 8 dereferenceable(8) ptr @_ZSt3getILm0EJPN4llvm6object10ObjectFileESt14default_deleteIS2_EEERNSt13tuple_elementIXT_ESt5tupleIJDpT0_EEE4typeERSA_(ptr noundef nonnull align 8 dereferenceable(8) %0) #0 comdat {
  %2 = alloca ptr, align 8
  store ptr %0, ptr %2, align 8
  %3 = load ptr, ptr %2, align 8
  %4 = call noundef nonnull align 8 dereferenceable(8) ptr @_ZSt12__get_helperILm0EPN4llvm6object10ObjectFileEJSt14default_deleteIS2_EEERT0_RSt11_Tuple_implIXT_EJS6_DpT1_EE(ptr noundef nonnull align 8 dereferenceable(8) %3) #11
  ret ptr %4
}

; Function Attrs: mustprogress nounwind uwtable
define linkonce_odr hidden noundef nonnull align 1 dereferenceable(1) ptr @_ZNSt15__uniq_ptr_implIN4llvm12MemoryBufferESt14default_deleteIS1_EE10_M_deleterEv(ptr noundef nonnull align 8 dereferenceable(8) %0) #0 comdat align 2 {
  %2 = alloca ptr, align 8
  store ptr %0, ptr %2, align 8
  %3 = load ptr, ptr %2, align 8
  %4 = getelementptr inbounds nuw %"class.std::__uniq_ptr_impl.6", ptr %3, i32 0, i32 0
  %5 = call noundef nonnull align 1 dereferenceable(1) ptr @_ZSt3getILm1EJPN4llvm12MemoryBufferESt14default_deleteIS1_EEERNSt13tuple_elementIXT_ESt5tupleIJDpT0_EEE4typeERS9_(ptr noundef nonnull align 8 dereferenceable(8) %4) #11
  ret ptr %5
}

; Function Attrs: mustprogress nounwind uwtable
define linkonce_odr noundef nonnull align 8 dereferenceable(8) ptr @_ZSt3getILm0EJPN4llvm12MemoryBufferESt14default_deleteIS1_EEERNSt13tuple_elementIXT_ESt5tupleIJDpT0_EEE4typeERS9_(ptr noundef nonnull align 8 dereferenceable(8) %0) #0 comdat {
  %2 = alloca ptr, align 8
  store ptr %0, ptr %2, align 8
  %3 = load ptr, ptr %2, align 8
  %4 = call noundef nonnull align 8 dereferenceable(8) ptr @_ZSt12__get_helperILm0EPN4llvm12MemoryBufferEJSt14default_deleteIS1_EEERT0_RSt11_Tuple_implIXT_EJS5_DpT1_EE(ptr noundef nonnull align 8 dereferenceable(8) %3) #11
  ret ptr %4
}

; Function Attrs: mustprogress nounwind uwtable
define linkonce_odr hidden void @_ZNKSt14default_deleteIN4llvm6object10ObjectFileEEclEPS2_(ptr noundef nonnull align 1 dereferenceable(1) %0, ptr noundef %1) #0 comdat align 2 {
  %3 = alloca ptr, align 8
  %4 = alloca ptr, align 8
  store ptr %0, ptr %3, align 8
  store ptr %1, ptr %4, align 8
  %5 = load ptr, ptr %4, align 8
  %6 = icmp eq ptr %5, null
  br i1 %6, label %11, label %7

7:                                                ; preds = %2
  %8 = load ptr, ptr %5, align 8
  %9 = getelementptr inbounds ptr, ptr %8, i64 1
  %10 = load ptr, ptr %9, align 8
  call void %10(ptr noundef nonnull align 8 dereferenceable(48) %5) #11
  br label %11

11:                                               ; preds = %7, %2
  ret void
}

; Function Attrs: mustprogress nounwind uwtable
define linkonce_odr hidden noundef nonnull align 1 dereferenceable(1) ptr @_ZNSt10unique_ptrIN4llvm6object10ObjectFileESt14default_deleteIS2_EE11get_deleterEv(ptr noundef nonnull align 8 dereferenceable(8) %0) #0 comdat align 2 {
  %2 = alloca ptr, align 8
  store ptr %0, ptr %2, align 8
  %3 = load ptr, ptr %2, align 8
  %4 = getelementptr inbounds nuw %"class.std::unique_ptr.20", ptr %3, i32 0, i32 0
  %5 = call noundef nonnull align 1 dereferenceable(1) ptr @_ZNSt15__uniq_ptr_implIN4llvm6object10ObjectFileESt14default_deleteIS2_EE10_M_deleterEv(ptr noundef nonnull align 8 dereferenceable(8) %4) #11
  ret ptr %5
}

; Function Attrs: mustprogress nounwind uwtable
define linkonce_odr hidden noundef nonnull align 8 dereferenceable(8) ptr @_ZNSt15__uniq_ptr_implIN4llvm6object10ObjectFileESt14default_deleteIS2_EE6_M_ptrEv(ptr noundef nonnull align 8 dereferenceable(8) %0) #0 comdat align 2 {
  %2 = alloca ptr, align 8
  store ptr %0, ptr %2, align 8
  %3 = load ptr, ptr %2, align 8
  %4 = getelementptr inbounds nuw %"class.std::__uniq_ptr_impl.22", ptr %3, i32 0, i32 0
  %5 = call noundef nonnull align 8 dereferenceable(8) ptr @_ZSt3getILm0EJPN4llvm6object10ObjectFileESt14default_deleteIS2_EEERNSt13tuple_elementIXT_ESt5tupleIJDpT0_EEE4typeERSA_(ptr noundef nonnull align 8 dereferenceable(8) %4) #11
  ret ptr %5
}

; Function Attrs: mustprogress nounwind uwtable
define linkonce_odr hidden void @_ZNKSt14default_deleteIN4llvm12MemoryBufferEEclEPS1_(ptr noundef nonnull align 1 dereferenceable(1) %0, ptr noundef %1) #0 comdat align 2 {
  %3 = alloca ptr, align 8
  %4 = alloca ptr, align 8
  store ptr %0, ptr %3, align 8
  store ptr %1, ptr %4, align 8
  %5 = load ptr, ptr %4, align 8
  %6 = icmp eq ptr %5, null
  br i1 %6, label %11, label %7

7:                                                ; preds = %2
  %8 = load ptr, ptr %5, align 8
  %9 = getelementptr inbounds ptr, ptr %8, i64 1
  %10 = load ptr, ptr %9, align 8
  call void %10(ptr noundef nonnull align 8 dereferenceable(24) %5) #11
  br label %11

11:                                               ; preds = %7, %2
  ret void
}

; Function Attrs: mustprogress nounwind uwtable
define linkonce_odr hidden noundef nonnull align 1 dereferenceable(1) ptr @_ZNSt10unique_ptrIN4llvm12MemoryBufferESt14default_deleteIS1_EE11get_deleterEv(ptr noundef nonnull align 8 dereferenceable(8) %0) #0 comdat align 2 {
  %2 = alloca ptr, align 8
  store ptr %0, ptr %2, align 8
  %3 = load ptr, ptr %2, align 8
  %4 = getelementptr inbounds nuw %"class.std::unique_ptr.4", ptr %3, i32 0, i32 0
  %5 = call noundef nonnull align 1 dereferenceable(1) ptr @_ZNSt15__uniq_ptr_implIN4llvm12MemoryBufferESt14default_deleteIS1_EE10_M_deleterEv(ptr noundef nonnull align 8 dereferenceable(8) %4) #11
  ret ptr %5
}

; Function Attrs: mustprogress nounwind uwtable
define linkonce_odr hidden noundef nonnull align 8 dereferenceable(8) ptr @_ZNSt15__uniq_ptr_implIN4llvm12MemoryBufferESt14default_deleteIS1_EE6_M_ptrEv(ptr noundef nonnull align 8 dereferenceable(8) %0) #0 comdat align 2 {
  %2 = alloca ptr, align 8
  store ptr %0, ptr %2, align 8
  %3 = load ptr, ptr %2, align 8
  %4 = getelementptr inbounds nuw %"class.std::__uniq_ptr_impl.6", ptr %3, i32 0, i32 0
  %5 = call noundef nonnull align 8 dereferenceable(8) ptr @_ZSt3getILm0EJPN4llvm12MemoryBufferESt14default_deleteIS1_EEERNSt13tuple_elementIXT_ESt5tupleIJDpT0_EEE4typeERS9_(ptr noundef nonnull align 8 dereferenceable(8) %4) #11
  ret ptr %5
}

; Function Attrs: mustprogress nounwind uwtable
define linkonce_odr hidden void @_ZNSt10unique_ptrIN4llvm6object10ObjectFileESt14default_deleteIS2_EED2Ev(ptr noundef nonnull align 8 dereferenceable(8) %0) unnamed_addr #0 comdat align 2 {
  %2 = alloca ptr, align 8
  %3 = alloca ptr, align 8
  store ptr %0, ptr %2, align 8
  %4 = load ptr, ptr %2, align 8
  %5 = getelementptr inbounds nuw %"class.std::unique_ptr.20", ptr %4, i32 0, i32 0
  %6 = call noundef nonnull align 8 dereferenceable(8) ptr @_ZNSt15__uniq_ptr_implIN4llvm6object10ObjectFileESt14default_deleteIS2_EE6_M_ptrEv(ptr noundef nonnull align 8 dereferenceable(8) %5) #11
  store ptr %6, ptr %3, align 8
  %7 = load ptr, ptr %3, align 8
  %8 = load ptr, ptr %7, align 8
  %9 = icmp ne ptr %8, null
  br i1 %9, label %10, label %14

10:                                               ; preds = %1
  %11 = call noundef nonnull align 1 dereferenceable(1) ptr @_ZNSt10unique_ptrIN4llvm6object10ObjectFileESt14default_deleteIS2_EE11get_deleterEv(ptr noundef nonnull align 8 dereferenceable(8) %4) #11
  %12 = load ptr, ptr %3, align 8
  %13 = load ptr, ptr %12, align 8
  call void @_ZNKSt14default_deleteIN4llvm6object10ObjectFileEEclEPS2_(ptr noundef nonnull align 1 dereferenceable(1) %11, ptr noundef %13)
  br label %14

14:                                               ; preds = %10, %1
  %15 = load ptr, ptr %3, align 8
  store ptr null, ptr %15, align 8
  ret void
}

; Function Attrs: mustprogress nounwind uwtable
define linkonce_odr hidden void @_ZNSt10unique_ptrIN4llvm12MemoryBufferESt14default_deleteIS1_EED2Ev(ptr noundef nonnull align 8 dereferenceable(8) %0) unnamed_addr #0 comdat align 2 {
  %2 = alloca ptr, align 8
  %3 = alloca ptr, align 8
  store ptr %0, ptr %2, align 8
  %4 = load ptr, ptr %2, align 8
  %5 = getelementptr inbounds nuw %"class.std::unique_ptr.4", ptr %4, i32 0, i32 0
  %6 = call noundef nonnull align 8 dereferenceable(8) ptr @_ZNSt15__uniq_ptr_implIN4llvm12MemoryBufferESt14default_deleteIS1_EE6_M_ptrEv(ptr noundef nonnull align 8 dereferenceable(8) %5) #11
  store ptr %6, ptr %3, align 8
  %7 = load ptr, ptr %3, align 8
  %8 = load ptr, ptr %7, align 8
  %9 = icmp ne ptr %8, null
  br i1 %9, label %10, label %14

10:                                               ; preds = %1
  %11 = call noundef nonnull align 1 dereferenceable(1) ptr @_ZNSt10unique_ptrIN4llvm12MemoryBufferESt14default_deleteIS1_EE11get_deleterEv(ptr noundef nonnull align 8 dereferenceable(8) %4) #11
  %12 = load ptr, ptr %3, align 8
  %13 = load ptr, ptr %12, align 8
  call void @_ZNKSt14default_deleteIN4llvm12MemoryBufferEEclEPS1_(ptr noundef nonnull align 1 dereferenceable(1) %11, ptr noundef %13)
  br label %14

14:                                               ; preds = %10, %1
  %15 = load ptr, ptr %3, align 8
  store ptr null, ptr %15, align 8
  ret void
}

; Function Attrs: mustprogress nounwind uwtable
define linkonce_odr hidden void @_ZN4llvm6object12OwningBinaryINS0_10ObjectFileEED2Ev(ptr noundef nonnull align 8 dereferenceable(16) %0) unnamed_addr #0 comdat align 2 {
  %2 = alloca ptr, align 8
  store ptr %0, ptr %2, align 8
  %3 = load ptr, ptr %2, align 8
  %4 = getelementptr inbounds nuw %"class.llvm::object::OwningBinary", ptr %3, i32 0, i32 1
  call void @_ZNSt10unique_ptrIN4llvm12MemoryBufferESt14default_deleteIS1_EED2Ev(ptr noundef nonnull align 8 dereferenceable(8) %4) #11
  %5 = getelementptr inbounds nuw %"class.llvm::object::OwningBinary", ptr %3, i32 0, i32 0
  call void @_ZNSt10unique_ptrIN4llvm6object10ObjectFileESt14default_deleteIS2_EED2Ev(ptr noundef nonnull align 8 dereferenceable(8) %5) #11
  ret void
}

; Function Attrs: mustprogress nounwind uwtable
define linkonce_odr hidden noundef ptr @_Z6unwrapP20LLVMOpaqueObjectFile(ptr noundef %0) #0 comdat {
  %2 = alloca ptr, align 8
  store ptr %0, ptr %2, align 8
  %3 = load ptr, ptr %2, align 8
  ret ptr %3
}

; Function Attrs: mustprogress nounwind uwtable
define dso_local void @LLVMDisposeObjectFile(ptr noundef %0) #0 {
  %2 = alloca ptr, align 8
  store ptr %0, ptr %2, align 8
  %3 = load ptr, ptr %2, align 8
  %4 = call noundef ptr @_Z6unwrapP20LLVMOpaqueObjectFile(ptr noundef %3)
  %5 = icmp eq ptr %4, null
  br i1 %5, label %7, label %6

6:                                                ; preds = %1
  call void @_ZN4llvm6object12OwningBinaryINS0_10ObjectFileEED2Ev(ptr noundef nonnull align 8 dereferenceable(16) %4) #11
  call void @_ZdlPvm(ptr noundef %4, i64 noundef 16) #13
  br label %7

7:                                                ; preds = %6, %1
  ret void
}