; Function Attrs: mustprogress nounwind uwtable
define dso_local void @LLVMDisposeObjectFile(ptr noundef %0) local_unnamed_addr #0 {
  %2 = icmp eq ptr %0, null
  br i1 %2, label %13, label %3

3:                                                ; preds = %1
  %4 = getelementptr inbounds nuw i8, ptr %0, i64 8
  %5 = load ptr, ptr %4, align 8
  %.not.i.i = icmp eq ptr %5, null
  br i1 %.not.i.i, label %_ZNSt10unique_ptrIN4llvm12MemoryBufferESt14default_deleteIS1_EED2Ev.exit.i, label %_ZNKSt14default_deleteIN4llvm12MemoryBufferEEclEPS1_.exit.i.i

_ZNKSt14default_deleteIN4llvm12MemoryBufferEEclEPS1_.exit.i.i: ; preds = %3
  %6 = load ptr, ptr %5, align 8
  %7 = getelementptr inbounds i8, ptr %6, i64 8
  %8 = load ptr, ptr %7, align 8
  tail call void %8(ptr noundef nonnull align 8 dereferenceable(24) %5) #17
  br label %_ZNSt10unique_ptrIN4llvm12MemoryBufferESt14default_deleteIS1_EED2Ev.exit.i

_ZNSt10unique_ptrIN4llvm12MemoryBufferESt14default_deleteIS1_EED2Ev.exit.i: ; preds = %_ZNKSt14default_deleteIN4llvm12MemoryBufferEEclEPS1_.exit.i.i, %3
  store ptr null, ptr %4, align 8
  %9 = load ptr, ptr %0, align 8
  %.not.i1.i = icmp eq ptr %9, null
  br i1 %.not.i1.i, label %_ZN4llvm6object12OwningBinaryINS0_10ObjectFileEED2Ev.exit, label %_ZNKSt14default_deleteIN4llvm6object10ObjectFileEEclEPS2_.exit.i.i

_ZNKSt14default_deleteIN4llvm6object10ObjectFileEEclEPS2_.exit.i.i: ; preds = %_ZNSt10unique_ptrIN4llvm12MemoryBufferESt14default_deleteIS1_EED2Ev.exit.i
  %10 = load ptr, ptr %9, align 8
  %11 = getelementptr inbounds i8, ptr %10, i64 8
  %12 = load ptr, ptr %11, align 8
  tail call void %12(ptr noundef nonnull align 8 dereferenceable(48) %9) #17
  br label %_ZN4llvm6object12OwningBinaryINS0_10ObjectFileEED2Ev.exit

_ZN4llvm6object12OwningBinaryINS0_10ObjectFileEED2Ev.exit: ; preds = %_ZNSt10unique_ptrIN4llvm12MemoryBufferESt14default_deleteIS1_EED2Ev.exit.i, %_ZNKSt14default_deleteIN4llvm6object10ObjectFileEEclEPS2_.exit.i.i
  tail call void @_ZdlPvm(ptr noundef nonnull %0, i64 noundef 16) #19
  br label %13

13:                                               ; preds = %_ZN4llvm6object12OwningBinaryINS0_10ObjectFileEED2Ev.exit, %1
  ret void
}